target datalayout = "e-m:e-p270:32:32-p271:32:32-p272:64:64-i64:64-i128:128-f80:128-n8:16:32:64-S128"
target triple = "x86_64-unknown-linux-gnu"

%"class.zmq::stream_engine_base_t" = type <{ %"class.zmq::io_object_t", %"struct.zmq::i_engine", %"struct.zmq::options_t", ptr, i64, ptr, ptr, i64, ptr, ptr, { i64, i64 }, { i64, i64 }, ptr, i8, i8, [6 x i8], %"struct.zmq::endpoint_uri_pair_t", i8, i8, i8, i8, [4 x i8], %"class.std::__cxx11::basic_string", i32, [4 x i8], ptr, i8, i8, [6 x i8], %"class.zmq::msg_t", i8, [7 x i8], ptr, ptr, i8, [7 x i8] }>
%"class.zmq::io_object_t" = type { %"struct.zmq::i_poll_events", ptr }
%"struct.zmq::i_poll_events" = type { ptr }
%"struct.zmq::i_engine" = type { ptr }
%"struct.zmq::options_t" = type { i32, i32, i64, i8, [256 x i8], i32, i32, i32, i32, i32, i32, i32, i32, i8, %"struct.zmq::atomic_value_t", i32, i32, i32, i32, i32, i32, i64, i32, i32, i8, i32, i8, i8, i8, i8, i8, %"class.std::__cxx11::basic_string", %"class.std::__cxx11::basic_string", %"class.std::__cxx11::basic_string", i32, i32, i32, i32, %"class.std::vector", %"class.std::set", %"class.std::set", %"class.std::set.6", i32, i32, %"class.std::__cxx11::basic_string", %"class.std::__cxx11::basic_string", %"class.std::__cxx11::basic_string", [32 x i8], [32 x i8], [32 x i8], %"class.std::__cxx11::basic_string", %"class.std::__cxx11::basic_string", i32, i32, i8, i32, i8, i32, i8, i16, i32, i32, i32, %"class.std::__cxx11::basic_string", i8, i8, i8, i32, i32, i8, i32, %"class.std::map", i32, %"class.std::__cxx11::basic_string", %"class.std::__cxx11::basic_string", %"class.std::__cxx11::basic_string", %"class.std::__cxx11::basic_string", i8, %"class.std::vector.21", i8, %"class.std::vector.21", i8, %"class.std::vector.21", i8, i32, i8, i32, i32, i32, i32, i32, i8, i32 }
%"struct.zmq::atomic_value_t" = type { %"struct.std::atomic" }
%"struct.std::atomic" = type { %"struct.std::__atomic_base" }
%"struct.std::__atomic_base" = type { i32 }
%"class.std::vector" = type { %"struct.std::_Vector_base" }
%"struct.std::_Vector_base" = type { %"struct.std::_Vector_base<zmq::tcp_address_mask_t, std::allocator<zmq::tcp_address_mask_t>>::_Vector_impl" }
%"struct.std::_Vector_base<zmq::tcp_address_mask_t, std::allocator<zmq::tcp_address_mask_t>>::_Vector_impl" = type { %"struct.std::_Vector_base<zmq::tcp_address_mask_t, std::allocator<zmq::tcp_address_mask_t>>::_Vector_impl_data" }
%"struct.std::_Vector_base<zmq::tcp_address_mask_t, std::allocator<zmq::tcp_address_mask_t>>::_Vector_impl_data" = type { ptr, ptr, ptr }
%"class.std::set" = type { %"class.std::_Rb_tree" }
%"class.std::_Rb_tree" = type { %"struct.std::_Rb_tree<unsigned int, unsigned int, std::_Identity<unsigned int>, std::less<unsigned int>>::_Rb_tree_impl" }
%"struct.std::_Rb_tree<unsigned int, unsigned int, std::_Identity<unsigned int>, std::less<unsigned int>>::_Rb_tree_impl" = type { %"struct.std::_Rb_tree_key_compare", %"struct.std::_Rb_tree_header" }
%"struct.std::_Rb_tree_key_compare" = type { %"struct.std::less" }
%"struct.std::less" = type { i8 }
%"struct.std::_Rb_tree_header" = type { %"struct.std::_Rb_tree_node_base", i64 }
%"struct.std::_Rb_tree_node_base" = type { i32, ptr, ptr, ptr }
%"class.std::set.6" = type { %"class.std::_Rb_tree.7" }
%"class.std::_Rb_tree.7" = type { %"struct.std::_Rb_tree<int, int, std::_Identity<int>, std::less<int>>::_Rb_tree_impl" }
%"struct.std::_Rb_tree<int, int, std::_Identity<int>, std::less<int>>::_Rb_tree_impl" = type { %"struct.std::_Rb_tree_key_compare.11", %"struct.std::_Rb_tree_header" }
%"struct.std::_Rb_tree_key_compare.11" = type { %"struct.std::less.12" }
%"struct.std::less.12" = type { i8 }
%"class.std::map" = type { %"class.std::_Rb_tree.14" }
%"class.std::_Rb_tree.14" = type { %"struct.std::_Rb_tree<std::__cxx11::basic_string<char>, std::pair<const std::__cxx11::basic_string<char>, std::__cxx11::basic_string<char>>, std::_Select1st<std::pair<const std::__cxx11::basic_string<char>, std::__cxx11::basic_string<char>>>, std::less<std::__cxx11::basic_string<char>>>::_Rb_tree_impl" }
%"struct.std::_Rb_tree<std::__cxx11::basic_string<char>, std::pair<const std::__cxx11::basic_string<char>, std::__cxx11::basic_string<char>>, std::_Select1st<std::pair<const std::__cxx11::basic_string<char>, std::__cxx11::basic_string<char>>>, std::less<std::__cxx11::basic_string<char>>>::_Rb_tree_impl" = type { %"struct.std::_Rb_tree_key_compare.18", %"struct.std::_Rb_tree_header" }
%"struct.std::_Rb_tree_key_compare.18" = type { %"struct.std::less.19" }
%"struct.std::less.19" = type { i8 }
%"class.std::vector.21" = type { %"struct.std::_Vector_base.22" }
%"struct.std::_Vector_base.22" = type { %"struct.std::_Vector_base<unsigned char, std::allocator<unsigned char>>::_Vector_impl" }
%"struct.std::_Vector_base<unsigned char, std::allocator<unsigned char>>::_Vector_impl" = type { %"struct.std::_Vector_base<unsigned char, std::allocator<unsigned char>>::_Vector_impl_data" }
%"struct.std::_Vector_base<unsigned char, std::allocator<unsigned char>>::_Vector_impl_data" = type { ptr, ptr, ptr }
%"struct.zmq::endpoint_uri_pair_t" = type <{ %"class.std::__cxx11::basic_string", %"class.std::__cxx11::basic_string", i32, [4 x i8] }>
%"class.std::__cxx11::basic_string" = type { %"struct.std::__cxx11::basic_string<char>::_Alloc_hider", i64, %union.anon }
%"struct.std::__cxx11::basic_string<char>::_Alloc_hider" = type { ptr }
%union.anon = type { i64, [8 x i8] }
%"class.zmq::msg_t" = type { %union.anon.26 }
%union.anon.26 = type { %struct.anon }
%struct.anon = type { ptr, [34 x i8], i8, i8, i32, %"union.zmq::msg_t::group_t" }
%"union.zmq::msg_t::group_t" = type { %struct.anon.28 }
%struct.anon.28 = type { i8, ptr }

@stderr = external global ptr, align 8
@.str.1 = private unnamed_addr constant [118 x i8] c"generated/home/dtcxzyw/WorkSpace/Projects/compilers/llvm-opt-benchmark/bench/libzmq/libzmq/src/stream_engine_base.cpp\00", align 1
@.str.2 = private unnamed_addr constant [30 x i8] c"Assertion failed: %s (%s:%d)\0A\00", align 1
@.str.6 = private unnamed_addr constant [9 x i8] c"_plugged\00", align 1

; Function Attrs: mustprogress uwtable
define void @_ZN3zmq20stream_engine_base_t6unplugEv(ptr noundef nonnull align 8 dereferenceable(1689) %this) #0 align 2 {
entry:
  %this.addr = alloca ptr, align 8
  store ptr %this, ptr %this.addr, align 8
  %this1 = load ptr, ptr %this.addr, align 8
  br label %do.body

do.body:                                          ; preds = %entry
  %_plugged = getelementptr inbounds %"class.zmq::stream_engine_base_t", ptr %this1, i32 0, i32 26
  %0 = load i8, ptr %_plugged, align 8
  %tobool = trunc i8 %0 to i1
  %lnot = xor i1 %tobool, true
  br i1 %lnot, label %if.then, label %if.end

if.then:                                          ; preds = %do.body
  %1 = load ptr, ptr @stderr, align 8
  %call = call i32 (ptr, ptr, ...) @fprintf(ptr noundef %1, ptr noundef @.str.2, ptr noundef @.str.6, ptr noundef @.str.1, i32 noundef 174)
  %2 = load ptr, ptr @stderr, align 8
  %call2 = call i32 @fflush(ptr noundef %2)
  call void @_ZN3zmq9zmq_abortEPKc(ptr noundef @.str.6)
  br label %if.end

if.end:                                           ; preds = %if.then, %do.body
  br label %do.end

do.end:                                           ; preds = %if.end
  %_plugged3 = getelementptr inbounds %"class.zmq::stream_engine_base_t", ptr %this1, i32 0, i32 26
  store i8 0, ptr %_plugged3, align 8
  %_has_handshake_timer = getelementptr inbounds %"class.zmq::stream_engine_base_t", ptr %this1, i32 0, i32 17
  %3 = load i8, ptr %_has_handshake_timer, align 8
  %tobool4 = trunc i8 %3 to i1
  br i1 %tobool4, label %if.then5, label %if.end7

if.then5:                                         ; preds = %do.end
  call void @_ZN3zmq11io_object_t12cancel_timerEi(ptr noundef nonnull align 8 dereferenceable(16) %this1, i32 noundef 64)
  %_has_handshake_timer6 = getelementptr inbounds %"class.zmq::stream_engine_base_t", ptr %this1, i32 0, i32 17
  store i8 0, ptr %_has_handshake_timer6, align 8
  br label %if.end7

if.end7:                                          ; preds = %if.then5, %do.end
  %_has_ttl_timer = getelementptr inbounds %"class.zmq::stream_engine_base_t", ptr %this1, i32 0, i32 18
  %4 = load i8, ptr %_has_ttl_timer, align 1
  %tobool8 = trunc i8 %4 to i1
  br i1 %tobool8, label %if.then9, label %if.end11

if.then9:                                         ; preds = %if.end7
  call void @_ZN3zmq11io_object_t12cancel_timerEi(ptr noundef nonnull align 8 dereferenceable(16) %this1, i32 noundef 130)
  %_has_ttl_timer10 = getelementptr inbounds %"class.zmq::stream_engine_base_t", ptr %this1, i32 0, i32 18
  store i8 0, ptr %_has_ttl_timer10, align 1
  br label %if.end11

if.end11:                                         ; preds = %if.then9, %if.end7
  %_has_timeout_timer = getelementptr inbounds %"class.zmq::stream_engine_base_t", ptr %this1, i32 0, i32 19
  %5 = load i8, ptr %_has_timeout_timer, align 2
  %tobool12 = trunc i8 %5 to i1
  br i1 %tobool12, label %if.then13, label %if.end15

if.then13:                                        ; preds = %if.end11
  call void @_ZN3zmq11io_object_t12cancel_timerEi(ptr noundef nonnull align 8 dereferenceable(16) %this1, i32 noundef 129)
  %_has_timeout_timer14 = getelementptr inbounds %"class.zmq::stream_engine_base_t", ptr %this1, i32 0, i32 19
  store i8 0, ptr %_has_timeout_timer14, align 2
  br label %if.end15

if.end15:                                         ; preds = %if.then13, %if.end11
  %_has_heartbeat_timer = getelementptr inbounds %"class.zmq::stream_engine_base_t", ptr %this1, i32 0, i32 20
  %6 = load i8, ptr %_has_heartbeat_timer, align 1
  %tobool16 = trunc i8 %6 to i1
  br i1 %tobool16, label %if.then17, label %if.end19

if.then17:                                        ; preds = %if.end15
  call void @_ZN3zmq11io_object_t12cancel_timerEi(ptr noundef nonnull align 8 dereferenceable(16) %this1, i32 noundef 128)
  %_has_heartbeat_timer18 = getelementptr inbounds %"class.zmq::stream_engine_base_t", ptr %this1, i32 0, i32 20
  store i8 0, ptr %_has_heartbeat_timer18, align 1
  br label %if.end19

if.end19:                                         ; preds = %if.then17, %if.end15
  %_io_error = getelementptr inbounds %"class.zmq::stream_engine_base_t", ptr %this1, i32 0, i32 30
  %7 = load i8, ptr %_io_error, align 8
  %tobool20 = trunc i8 %7 to i1
  br i1 %tobool20, label %if.end22, label %if.then21

if.then21:                                        ; preds = %if.end19
  %_handle = getelementptr inbounds %"class.zmq::stream_engine_base_t", ptr %this1, i32 0, i32 25
  %8 = load ptr, ptr %_handle, align 8
  call void @_ZN3zmq11io_object_t5rm_fdEPv(ptr noundef nonnull align 8 dereferenceable(16) %this1, ptr noundef %8)
  br label %if.end22

if.end22:                                         ; preds = %if.then21, %if.end19
  call void @_ZN3zmq11io_object_t6unplugEv(ptr noundef nonnull align 8 dereferenceable(16) %this1)
  %_session = getelementptr inbounds %"class.zmq::stream_engine_base_t", ptr %this1, i32 0, i32 32
  store ptr null, ptr %_session, align 8
  ret void
}