; Function Attrs: mustprogress uwtable
define void @_ZN3zmq20stream_engine_base_t6unplugEv(ptr noundef nonnull align 8 dereferenceable(1689) %this) local_unnamed_addr #0 align 2 {
entry:
  %_plugged = getelementptr inbounds i8, ptr %this, i64 1592
  %0 = load i8, ptr %_plugged, align 8
  %1 = and i8 %0, 1
  %tobool.not = icmp eq i8 %1, 0
  br i1 %tobool.not, label %if.then, label %do.end

if.then:                                          ; preds = %entry
  %2 = load ptr, ptr @stderr, align 8
  %call = tail call i32 (ptr, ptr, ...) @fprintf(ptr noundef %2, ptr noundef nonnull @.str.2, ptr noundef nonnull @.str.6, ptr noundef nonnull @.str.1, i32 noundef 174) #21
  %3 = load ptr, ptr @stderr, align 8
  %call2 = tail call i32 @fflush(ptr noundef %3)
  tail call void @_ZN3zmq9zmq_abortEPKc(ptr noundef nonnull @.str.6)
  br label %do.end

do.end:                                           ; preds = %entry, %if.then
  store i8 0, ptr %_plugged, align 8
  %_has_handshake_timer = getelementptr inbounds i8, ptr %this, i64 1536
  %4 = load i8, ptr %_has_handshake_timer, align 8
  %5 = and i8 %4, 1
  %tobool4.not = icmp eq i8 %5, 0
  br i1 %tobool4.not, label %if.end7, label %if.then5

if.then5:                                         ; preds = %do.end
  tail call void @_ZN3zmq11io_object_t12cancel_timerEi(ptr noundef nonnull align 8 dereferenceable(16) %this, i32 noundef 64)
  store i8 0, ptr %_has_handshake_timer, align 8
  br label %if.end7

if.end7:                                          ; preds = %if.then5, %do.end
  %_has_ttl_timer = getelementptr inbounds i8, ptr %this, i64 1537
  %6 = load i8, ptr %_has_ttl_timer, align 1
  %7 = and i8 %6, 1
  %tobool8.not = icmp eq i8 %7, 0
  br i1 %tobool8.not, label %if.end11, label %if.then9

if.then9:                                         ; preds = %if.end7
  tail call void @_ZN3zmq11io_object_t12cancel_timerEi(ptr noundef nonnull align 8 dereferenceable(16) %this, i32 noundef 130)
  store i8 0, ptr %_has_ttl_timer, align 1
  br label %if.end11

if.end11:                                         ; preds = %if.then9, %if.end7
  %_has_timeout_timer = getelementptr inbounds i8, ptr %this, i64 1538
  %8 = load i8, ptr %_has_timeout_timer, align 2
  %9 = and i8 %8, 1
  %tobool12.not = icmp eq i8 %9, 0
  br i1 %tobool12.not, label %if.end15, label %if.then13

if.then13:                                        ; preds = %if.end11
  tail call void @_ZN3zmq11io_object_t12cancel_timerEi(ptr noundef nonnull align 8 dereferenceable(16) %this, i32 noundef 129)
  store i8 0, ptr %_has_timeout_timer, align 2
  br label %if.end15

if.end15:                                         ; preds = %if.then13, %if.end11
  %_has_heartbeat_timer = getelementptr inbounds i8, ptr %this, i64 1539
  %10 = load i8, ptr %_has_heartbeat_timer, align 1
  %11 = and i8 %10, 1
  %tobool16.not = icmp eq i8 %11, 0
  br i1 %tobool16.not, label %if.end19, label %if.then17

if.then17:                                        ; preds = %if.end15
  tail call void @_ZN3zmq11io_object_t12cancel_timerEi(ptr noundef nonnull align 8 dereferenceable(16) %this, i32 noundef 128)
  store i8 0, ptr %_has_heartbeat_timer, align 1
  br label %if.end19

if.end19:                                         ; preds = %if.then17, %if.end15
  %_io_error = getelementptr inbounds i8, ptr %this, i64 1664
  %12 = load i8, ptr %_io_error, align 8
  %13 = and i8 %12, 1
  %tobool20.not = icmp eq i8 %13, 0
  br i1 %tobool20.not, label %if.then21, label %if.end22

if.then21:                                        ; preds = %if.end19
  %_handle = getelementptr inbounds i8, ptr %this, i64 1584
  %14 = load ptr, ptr %_handle, align 8
  tail call void @_ZN3zmq11io_object_t5rm_fdEPv(ptr noundef nonnull align 8 dereferenceable(16) %this, ptr noundef %14)
  br label %if.end22

if.end22:                                         ; preds = %if.then21, %if.end19
  tail call void @_ZN3zmq11io_object_t6unplugEv(ptr noundef nonnull align 8 dereferenceable(16) %this)
  %_session = getelementptr inbounds i8, ptr %this, i64 1672
  store ptr null, ptr %_session, align 8
  ret void
}